; Function Attrs: mustprogress nofree norecurse nosync nounwind willreturn memory(argmem: write) uwtable
define void @av_bprint_init_for_buffer(ptr noundef %0, ptr noundef %1, i32 noundef %2) local_unnamed_addr #2 {
  %4 = icmp eq i32 %2, 0
  %5 = getelementptr inbounds nuw i8, ptr %0, i64 8
  br i1 %4, label %6, label %8

6:                                                ; preds = %3
  %7 = getelementptr inbounds nuw i8, ptr %0, i64 20
  store ptr %7, ptr %0, align 8, !tbaa !4
  tail call void @llvm.memset.p0.i64(ptr noundef nonnull align 8 dereferenceable(13) %5, i8 0, i64 13, i1 false)
  br label %11

8:                                                ; preds = %3
  %9 = getelementptr inbounds nuw i8, ptr %0, i64 12
  store ptr %1, ptr %0, align 8, !tbaa !4
  store i32 0, ptr %5, align 8, !tbaa !11
  store i32 %2, ptr %9, align 4, !tbaa !12
  %10 = getelementptr inbounds nuw i8, ptr %0, i64 16
  store i32 %2, ptr %10, align 8, !tbaa !13
  store i8 0, ptr %1, align 1, !tbaa !14
  br label %11

11:                                               ; preds = %8, %6
  ret void
}